target datalayout = "e-m:e-p270:32:32-p271:32:32-p272:64:64-i64:64-i128:128-f80:128-n8:16:32:64-S128"
target triple = "x86_64-pc-linux-gnu"

@.str.259 = private unnamed_addr constant [12 x i8] c"PRTE_MCA_%s\00", align 1
@.str.266 = private unnamed_addr constant [4 x i8] c"dl_\00", align 1
@.str.267 = private unnamed_addr constant [19 x i8] c"PRTE_MCA_prtedl_%s\00", align 1
@.str.268 = private unnamed_addr constant [5 x i8] c"oob_\00", align 1
@.str.269 = private unnamed_addr constant [7 x i8] c"hwloc_\00", align 1
@.str.270 = private unnamed_addr constant [4 x i8] c"if_\00", align 1
@.str.271 = private unnamed_addr constant [19 x i8] c"PRTE_MCA_prteif_%s\00", align 1
@.str.272 = private unnamed_addr constant [11 x i8] c"reachable_\00", align 1
@.str.273 = private unnamed_addr constant [26 x i8] c"PRTE_MCA_prtereachable_%s\00", align 1
@.str.274 = private unnamed_addr constant [9 x i8] c"plm_rsh_\00", align 1
@.str.275 = private unnamed_addr constant [20 x i8] c"PRTE_MCA_plm_ssh_%s\00", align 1
@.str.276 = private unnamed_addr constant [6 x i8] c"orte_\00", align 1
@.str.277 = private unnamed_addr constant [17 x i8] c"PRTE_MCA_prte_%s\00", align 1

; Function Attrs: nounwind uwtable
define internal zeroext i1 @check_prte_overlap(ptr noundef %0, ptr noundef %1) #0 {
  %3 = alloca i1, align 1
  %4 = alloca ptr, align 8
  %5 = alloca ptr, align 8
  %6 = alloca ptr, align 8
  %7 = alloca i32, align 4
  store ptr %0, ptr %4, align 8, !tbaa !20
  store ptr %1, ptr %5, align 8, !tbaa !20
  call void @llvm.lifetime.start.p0(i64 8, ptr %6) #11
  %8 = load ptr, ptr %4, align 8, !tbaa !20
  %9 = call i32 @strncmp(ptr noundef %8, ptr noundef @.str.266, i64 noundef 3) #13
  %10 = icmp eq i32 0, %9
  br i1 %10, label %11, label %19

11:                                               ; preds = %2
  %12 = load ptr, ptr %4, align 8, !tbaa !20
  %13 = getelementptr inbounds i8, ptr %12, i64 3
  %14 = call i32 (ptr, ptr, ...) @pmix_asprintf(ptr noundef %6, ptr noundef @.str.267, ptr noundef %13)
  %15 = load ptr, ptr %6, align 8, !tbaa !20
  %16 = load ptr, ptr %5, align 8, !tbaa !20
  %17 = call i32 @setenv(ptr noundef %15, ptr noundef %16, i32 noundef 0) #11
  %18 = load ptr, ptr %6, align 8, !tbaa !20
  call void @free(ptr noundef %18) #11
  store i1 true, ptr %3, align 1
  store i32 1, ptr %7, align 4
  br label %96

19:                                               ; preds = %2
  %20 = load ptr, ptr %4, align 8, !tbaa !20
  %21 = call i32 @strncmp(ptr noundef %20, ptr noundef @.str.268, i64 noundef 4) #13
  %22 = icmp eq i32 0, %21
  br i1 %22, label %23, label %30

23:                                               ; preds = %19
  %24 = load ptr, ptr %4, align 8, !tbaa !20
  %25 = call i32 (ptr, ptr, ...) @pmix_asprintf(ptr noundef %6, ptr noundef @.str.259, ptr noundef %24)
  %26 = load ptr, ptr %6, align 8, !tbaa !20
  %27 = load ptr, ptr %5, align 8, !tbaa !20
  %28 = call i32 @setenv(ptr noundef %26, ptr noundef %27, i32 noundef 0) #11
  %29 = load ptr, ptr %6, align 8, !tbaa !20
  call void @free(ptr noundef %29) #11
  store i1 true, ptr %3, align 1
  store i32 1, ptr %7, align 4
  br label %96

30:                                               ; preds = %19
  %31 = load ptr, ptr %4, align 8, !tbaa !20
  %32 = call i32 @strncmp(ptr noundef %31, ptr noundef @.str.269, i64 noundef 6) #13
  %33 = icmp eq i32 0, %32
  br i1 %33, label %34, label %41

34:                                               ; preds = %30
  %35 = load ptr, ptr %4, align 8, !tbaa !20
  %36 = call i32 (ptr, ptr, ...) @pmix_asprintf(ptr noundef %6, ptr noundef @.str.259, ptr noundef %35)
  %37 = load ptr, ptr %6, align 8, !tbaa !20
  %38 = load ptr, ptr %5, align 8, !tbaa !20
  %39 = call i32 @setenv(ptr noundef %37, ptr noundef %38, i32 noundef 0) #11
  %40 = load ptr, ptr %6, align 8, !tbaa !20
  call void @free(ptr noundef %40) #11
  store i1 true, ptr %3, align 1
  store i32 1, ptr %7, align 4
  br label %96

41:                                               ; preds = %30
  %42 = load ptr, ptr %4, align 8, !tbaa !20
  %43 = call i32 @strncmp(ptr noundef %42, ptr noundef @.str.270, i64 noundef 3) #13
  %44 = icmp eq i32 0, %43
  br i1 %44, label %45, label %53

45:                                               ; preds = %41
  %46 = load ptr, ptr %4, align 8, !tbaa !20
  %47 = getelementptr inbounds i8, ptr %46, i64 3
  %48 = call i32 (ptr, ptr, ...) @pmix_asprintf(ptr noundef %6, ptr noundef @.str.271, ptr noundef %47)
  %49 = load ptr, ptr %6, align 8, !tbaa !20
  %50 = load ptr, ptr %5, align 8, !tbaa !20
  %51 = call i32 @setenv(ptr noundef %49, ptr noundef %50, i32 noundef 0) #11
  %52 = load ptr, ptr %6, align 8, !tbaa !20
  call void @free(ptr noundef %52) #11
  store i1 true, ptr %3, align 1
  store i32 1, ptr %7, align 4
  br label %96

53:                                               ; preds = %41
  %54 = load ptr, ptr %4, align 8, !tbaa !20
  %55 = call i32 @strncmp(ptr noundef %54, ptr noundef @.str.272, i64 noundef 10) #13
  %56 = icmp eq i32 0, %55
  br i1 %56, label %57, label %65

57:                                               ; preds = %53
  %58 = load ptr, ptr %4, align 8, !tbaa !20
  %59 = getelementptr inbounds nuw i8, ptr %58, i64 10
  %60 = call i32 (ptr, ptr, ...) @pmix_asprintf(ptr noundef %6, ptr noundef @.str.273, ptr noundef %59)
  %61 = load ptr, ptr %6, align 8, !tbaa !20
  %62 = load ptr, ptr %5, align 8, !tbaa !20
  %63 = call i32 @setenv(ptr noundef %61, ptr noundef %62, i32 noundef 0) #11
  %64 = load ptr, ptr %6, align 8, !tbaa !20
  call void @free(ptr noundef %64) #11
  store i1 true, ptr %3, align 1
  store i32 1, ptr %7, align 4
  br label %96

65:                                               ; preds = %53
  %66 = load ptr, ptr %4, align 8, !tbaa !20
  %67 = call i32 @strncmp(ptr noundef %66, ptr noundef @.str.274, i64 noundef 8) #13
  %68 = icmp eq i32 0, %67
  br i1 %68, label %69, label %77

69:                                               ; preds = %65
  %70 = load ptr, ptr %4, align 8, !tbaa !20
  %71 = getelementptr inbounds nuw i8, ptr %70, i64 8
  %72 = call i32 (ptr, ptr, ...) @pmix_asprintf(ptr noundef %6, ptr noundef @.str.275, ptr noundef %71)
  %73 = load ptr, ptr %6, align 8, !tbaa !20
  %74 = load ptr, ptr %5, align 8, !tbaa !20
  %75 = call i32 @setenv(ptr noundef %73, ptr noundef %74, i32 noundef 0) #11
  %76 = load ptr, ptr %6, align 8, !tbaa !20
  call void @free(ptr noundef %76) #11
  store i1 true, ptr %3, align 1
  store i32 1, ptr %7, align 4
  br label %96

77:                                               ; preds = %65
  %78 = load ptr, ptr %4, align 8, !tbaa !20
  %79 = call i32 @strncmp(ptr noundef %78, ptr noundef @.str.276, i64 noundef 5) #13
  %80 = icmp eq i32 0, %79
  br i1 %80, label %81, label %89

81:                                               ; preds = %77
  %82 = load ptr, ptr %4, align 8, !tbaa !20
  %83 = getelementptr inbounds nuw i8, ptr %82, i64 5
  %84 = call i32 (ptr, ptr, ...) @pmix_asprintf(ptr noundef %6, ptr noundef @.str.277, ptr noundef %83)
  %85 = load ptr, ptr %6, align 8, !tbaa !20
  %86 = load ptr, ptr %5, align 8, !tbaa !20
  %87 = call i32 @setenv(ptr noundef %85, ptr noundef %86, i32 noundef 0) #11
  %88 = load ptr, ptr %6, align 8, !tbaa !20
  call void @free(ptr noundef %88) #11
  store i1 true, ptr %3, align 1
  store i32 1, ptr %7, align 4
  br label %96

89:                                               ; preds = %77
  br label %90

90:                                               ; preds = %89
  br label %91

91:                                               ; preds = %90
  br label %92

92:                                               ; preds = %91
  br label %93

93:                                               ; preds = %92
  br label %94

94:                                               ; preds = %93
  br label %95

95:                                               ; preds = %94
  store i1 false, ptr %3, align 1
  store i32 1, ptr %7, align 4
  br label %96

96:                                               ; preds = %95, %81, %69, %57, %45, %34, %23, %11
  call void @llvm.lifetime.end.p0(i64 8, ptr %6) #11
  %97 = load i1, ptr %3, align 1
  ret i1 %97
}