; Function Attrs: nounwind uwtable
define internal fastcc noundef zeroext i1 @check_prte_overlap(ptr noundef %0, ptr noundef %1) unnamed_addr #0 {
sub_0:
  %2 = alloca ptr, align 8
  call void @llvm.lifetime.start.p0(i64 8, ptr nonnull %2) #18
  %3 = load i8, ptr %0, align 1
  %.not = icmp eq i8 %3, 100
  br i1 %.not, label %sub_1, label %.tail.thread

sub_1:                                            ; preds = %sub_0
  %4 = getelementptr inbounds nuw i8, ptr %0, i64 1
  %5 = load i8, ptr %4, align 1
  %.not27 = icmp eq i8 %5, 108
  br i1 %.not27, label %.tail, label %.tail.thread

.tail:                                            ; preds = %sub_1
  %6 = getelementptr inbounds nuw i8, ptr %0, i64 2
  %7 = load i8, ptr %6, align 1
  %8 = icmp eq i8 %7, 95
  br i1 %8, label %9, label %.tail.thread

9:                                                ; preds = %.tail
  %10 = getelementptr inbounds nuw i8, ptr %0, i64 3
  %11 = call i32 (ptr, ptr, ...) @pmix_asprintf(ptr noundef nonnull %2, ptr noundef nonnull @.str.267, ptr noundef nonnull %10) #18
  br label %.sink.split

.tail.thread:                                     ; preds = %sub_1, %sub_0, %.tail
  %12 = tail call i32 @strncmp(ptr noundef nonnull dereferenceable(1) %0, ptr noundef nonnull dereferenceable(5) @.str.268, i64 noundef 4) #20
  %13 = icmp eq i32 %12, 0
  br i1 %13, label %14, label %16

14:                                               ; preds = %.tail.thread
  %15 = call i32 (ptr, ptr, ...) @pmix_asprintf(ptr noundef nonnull %2, ptr noundef nonnull @.str.259, ptr noundef nonnull %0) #18
  br label %.sink.split

16:                                               ; preds = %.tail.thread
  %17 = tail call i32 @strncmp(ptr noundef nonnull dereferenceable(1) %0, ptr noundef nonnull dereferenceable(7) @.str.269, i64 noundef 6) #20
  %18 = icmp eq i32 %17, 0
  br i1 %18, label %19, label %sub_023

19:                                               ; preds = %16
  %20 = call i32 (ptr, ptr, ...) @pmix_asprintf(ptr noundef nonnull %2, ptr noundef nonnull @.str.259, ptr noundef nonnull %0) #18
  br label %.sink.split

sub_023:                                          ; preds = %16
  %.not28 = icmp eq i8 %3, 105
  br i1 %.not28, label %sub_124, label %.tail22.thread

sub_124:                                          ; preds = %sub_023
  %21 = getelementptr inbounds nuw i8, ptr %0, i64 1
  %22 = load i8, ptr %21, align 1
  %.not29 = icmp eq i8 %22, 102
  br i1 %.not29, label %.tail22, label %.tail22.thread

.tail22:                                          ; preds = %sub_124
  %23 = getelementptr inbounds nuw i8, ptr %0, i64 2
  %24 = load i8, ptr %23, align 1
  %25 = icmp eq i8 %24, 95
  br i1 %25, label %26, label %.tail22.thread

26:                                               ; preds = %.tail22
  %27 = getelementptr inbounds nuw i8, ptr %0, i64 3
  %28 = call i32 (ptr, ptr, ...) @pmix_asprintf(ptr noundef nonnull %2, ptr noundef nonnull @.str.271, ptr noundef nonnull %27) #18
  br label %.sink.split

.tail22.thread:                                   ; preds = %sub_124, %sub_023, %.tail22
  %29 = tail call i32 @strncmp(ptr noundef nonnull dereferenceable(1) %0, ptr noundef nonnull dereferenceable(11) @.str.272, i64 noundef 10) #20
  %30 = icmp eq i32 %29, 0
  br i1 %30, label %31, label %34

31:                                               ; preds = %.tail22.thread
  %32 = getelementptr inbounds nuw i8, ptr %0, i64 10
  %33 = call i32 (ptr, ptr, ...) @pmix_asprintf(ptr noundef nonnull %2, ptr noundef nonnull @.str.273, ptr noundef nonnull %32) #18
  br label %.sink.split

34:                                               ; preds = %.tail22.thread
  %35 = tail call i32 @strncmp(ptr noundef nonnull dereferenceable(1) %0, ptr noundef nonnull dereferenceable(9) @.str.274, i64 noundef 8) #20
  %36 = icmp eq i32 %35, 0
  br i1 %36, label %37, label %40

37:                                               ; preds = %34
  %38 = getelementptr inbounds nuw i8, ptr %0, i64 8
  %39 = call i32 (ptr, ptr, ...) @pmix_asprintf(ptr noundef nonnull %2, ptr noundef nonnull @.str.275, ptr noundef nonnull %38) #18
  br label %.sink.split

40:                                               ; preds = %34
  %41 = tail call i32 @strncmp(ptr noundef nonnull dereferenceable(1) %0, ptr noundef nonnull dereferenceable(6) @.str.276, i64 noundef 5) #20
  %42 = icmp eq i32 %41, 0
  br i1 %42, label %43, label %49

43:                                               ; preds = %40
  %44 = getelementptr inbounds nuw i8, ptr %0, i64 5
  %45 = call i32 (ptr, ptr, ...) @pmix_asprintf(ptr noundef nonnull %2, ptr noundef nonnull @.str.277, ptr noundef nonnull %44) #18
  br label %.sink.split

.sink.split:                                      ; preds = %9, %14, %19, %26, %31, %37, %43
  %46 = load ptr, ptr %2, align 8, !tbaa !4
  %47 = call i32 @setenv(ptr noundef %46, ptr noundef %1, i32 noundef 0) #18
  %48 = load ptr, ptr %2, align 8, !tbaa !4
  call void @free(ptr noundef %48) #18
  br label %49

49:                                               ; preds = %.sink.split, %40
  %.0 = phi i1 [ false, %40 ], [ true, %.sink.split ]
  call void @llvm.lifetime.end.p0(i64 8, ptr nonnull %2) #18
  ret i1 %.0
}